target datalayout = "e-m:e-p270:32:32-p271:32:32-p272:64:64-i64:64-i128:128-f80:128-n8:16:32:64-S128"
target triple = "x86_64-pc-linux-gnu"

%struct.part_res_record = type { ptr, i16, ptr, i8, ptr }
%struct.part_record = type { i32, ptr, ptr, ptr, ptr, ptr, ptr, i32, ptr, ptr, ptr, ptr, ptr, i32, i64, i32, ptr, ptr, ptr, ptr, ptr, i32, i32, ptr, i32, i32, i64, i32, i32, i16, i32, i32, i32, i32, ptr, ptr, ptr, ptr, ptr, double, i16, i16, i16, i16, ptr, ptr, i16, i16, i32, i16, i32, i32, i32, i32, i16, ptr, ptr, ptr }

@.str = private unnamed_addr constant [12 x i8] c"part_data.c\00", align 1
@__func__.part_data_dup_res = private unnamed_addr constant [18 x i8] c"part_data_dup_res\00", align 1

; Function Attrs: nounwind uwtable
define dso_local void @part_data_rebuild_rows(ptr noundef %0) #0 {
  %2 = alloca ptr, align 8
  store ptr %0, ptr %2, align 8
  br label %3

3:                                                ; preds = %14, %1
  %4 = load ptr, ptr %2, align 8
  %5 = icmp ne ptr %4, null
  br i1 %5, label %6, label %18

6:                                                ; preds = %3
  %7 = load ptr, ptr %2, align 8
  %8 = getelementptr inbounds nuw %struct.part_res_record, ptr %7, i32 0, i32 3
  %9 = load i8, ptr %8, align 8, !range !28, !noundef !29
  %10 = trunc i8 %9 to i1
  br i1 %10, label %11, label %13

11:                                               ; preds = %6
  %12 = load ptr, ptr %2, align 8
  call void @part_data_build_row_bitmaps(ptr noundef %12, ptr noundef null)
  br label %13

13:                                               ; preds = %11, %6
  br label %14

14:                                               ; preds = %13
  %15 = load ptr, ptr %2, align 8
  %16 = getelementptr inbounds nuw %struct.part_res_record, ptr %15, i32 0, i32 0
  %17 = load ptr, ptr %16, align 8
  store ptr %17, ptr %2, align 8
  br label %3, !llvm.loop !34

18:                                               ; preds = %3
  ret void
}

; Function Attrs: nounwind uwtable
define dso_local ptr @part_data_dup_res(ptr noundef %0, ptr noundef %1) #0 {
  %3 = alloca ptr, align 8
  %4 = alloca ptr, align 8
  %5 = alloca ptr, align 8
  %6 = alloca ptr, align 8
  %7 = alloca ptr, align 8
  %8 = alloca i32, align 4
  store ptr %0, ptr %4, align 8
  store ptr %1, ptr %5, align 8
  call void @llvm.lifetime.start.p0(i64 8, ptr %6) #5
  call void @llvm.lifetime.start.p0(i64 8, ptr %7) #5
  %9 = load ptr, ptr %4, align 8
  %10 = icmp eq ptr %9, null
  br i1 %10, label %11, label %12

11:                                               ; preds = %2
  store ptr null, ptr %3, align 8
  store i32 1, ptr %8, align 4
  br label %92

12:                                               ; preds = %2
  %13 = call ptr @slurm_xcalloc(i64 noundef 1, i64 noundef 40, i1 noundef zeroext true, i1 noundef zeroext false, ptr noundef @.str, i32 noundef 450, ptr noundef @__func__.part_data_dup_res)
  store ptr %13, ptr %6, align 8
  %14 = load ptr, ptr %6, align 8
  store ptr %14, ptr %7, align 8
  br label %15

15:                                               ; preds = %86, %12
  %16 = load ptr, ptr %4, align 8
  %17 = icmp ne ptr %16, null
  br i1 %17, label %18, label %90

18:                                               ; preds = %15
  %19 = load ptr, ptr %4, align 8
  %20 = getelementptr inbounds nuw %struct.part_res_record, ptr %19, i32 0, i32 2
  %21 = load ptr, ptr %20, align 8
  %22 = load ptr, ptr %7, align 8
  %23 = getelementptr inbounds nuw %struct.part_res_record, ptr %22, i32 0, i32 2
  store ptr %21, ptr %23, align 8
  %24 = load ptr, ptr %5, align 8
  %25 = icmp ne ptr %24, null
  br i1 %25, label %26, label %71

26:                                               ; preds = %18
  %27 = load ptr, ptr %4, align 8
  %28 = getelementptr inbounds nuw %struct.part_res_record, ptr %27, i32 0, i32 2
  %29 = load ptr, ptr %28, align 8
  %30 = getelementptr inbounds nuw %struct.part_record, ptr %29, i32 0, i32 35
  %31 = load ptr, ptr %30, align 8
  %32 = icmp ne ptr %31, null
  br i1 %32, label %33, label %71

33:                                               ; preds = %26
  %34 = load ptr, ptr %5, align 8
  %35 = load ptr, ptr %4, align 8
  %36 = getelementptr inbounds nuw %struct.part_res_record, ptr %35, i32 0, i32 2
  %37 = load ptr, ptr %36, align 8
  %38 = getelementptr inbounds nuw %struct.part_record, ptr %37, i32 0, i32 35
  %39 = load ptr, ptr %38, align 8
  %40 = call i32 @bit_overlap_any(ptr noundef %34, ptr noundef %39)
  %41 = icmp ne i32 %40, 0
  br i1 %41, label %42, label %71

42:                                               ; preds = %33
  %43 = load ptr, ptr %4, align 8
  %44 = getelementptr inbounds nuw %struct.part_res_record, ptr %43, i32 0, i32 3
  %45 = load i8, ptr %44, align 8, !range !28, !noundef !29
  %46 = trunc i8 %45 to i1
  br i1 %46, label %47, label %49

47:                                               ; preds = %42
  %48 = load ptr, ptr %4, align 8
  call void @part_data_rebuild_rows(ptr noundef %48)
  br label %49

49:                                               ; preds = %47, %42
  %50 = load ptr, ptr %4, align 8
  %51 = getelementptr inbounds nuw %struct.part_res_record, ptr %50, i32 0, i32 1
  %52 = load i16, ptr %51, align 8
  %53 = load ptr, ptr %7, align 8
  %54 = getelementptr inbounds nuw %struct.part_res_record, ptr %53, i32 0, i32 1
  store i16 %52, ptr %54, align 8
  %55 = load ptr, ptr %4, align 8
  %56 = getelementptr inbounds nuw %struct.part_res_record, ptr %55, i32 0, i32 4
  %57 = load ptr, ptr %56, align 8
  %58 = load ptr, ptr %4, align 8
  %59 = getelementptr inbounds nuw %struct.part_res_record, ptr %58, i32 0, i32 1
  %60 = load i16, ptr %59, align 8
  %61 = call ptr @part_data_dup_row(ptr noundef %57, i16 noundef zeroext %60)
  %62 = load ptr, ptr %7, align 8
  %63 = getelementptr inbounds nuw %struct.part_res_record, ptr %62, i32 0, i32 4
  store ptr %61, ptr %63, align 8
  %64 = load ptr, ptr %4, align 8
  %65 = getelementptr inbounds nuw %struct.part_res_record, ptr %64, i32 0, i32 3
  %66 = load i8, ptr %65, align 8, !range !28, !noundef !29
  %67 = trunc i8 %66 to i1
  %68 = load ptr, ptr %7, align 8
  %69 = getelementptr inbounds nuw %struct.part_res_record, ptr %68, i32 0, i32 3
  %70 = zext i1 %67 to i8
  store i8 %70, ptr %69, align 8
  br label %74

71:                                               ; preds = %33, %26, %18
  %72 = load ptr, ptr %7, align 8
  %73 = getelementptr inbounds nuw %struct.part_res_record, ptr %72, i32 0, i32 3
  store i8 1, ptr %73, align 8
  br label %74

74:                                               ; preds = %71, %49
  %75 = load ptr, ptr %4, align 8
  %76 = getelementptr inbounds nuw %struct.part_res_record, ptr %75, i32 0, i32 0
  %77 = load ptr, ptr %76, align 8
  %78 = icmp ne ptr %77, null
  br i1 %78, label %79, label %86

79:                                               ; preds = %74
  %80 = call ptr @slurm_xcalloc(i64 noundef 1, i64 noundef 40, i1 noundef zeroext true, i1 noundef zeroext false, ptr noundef @.str, i32 noundef 469, ptr noundef @__func__.part_data_dup_res)
  %81 = load ptr, ptr %7, align 8
  %82 = getelementptr inbounds nuw %struct.part_res_record, ptr %81, i32 0, i32 0
  store ptr %80, ptr %82, align 8
  %83 = load ptr, ptr %7, align 8
  %84 = getelementptr inbounds nuw %struct.part_res_record, ptr %83, i32 0, i32 0
  %85 = load ptr, ptr %84, align 8
  store ptr %85, ptr %7, align 8
  br label %86

86:                                               ; preds = %79, %74
  %87 = load ptr, ptr %4, align 8
  %88 = getelementptr inbounds nuw %struct.part_res_record, ptr %87, i32 0, i32 0
  %89 = load ptr, ptr %88, align 8
  store ptr %89, ptr %4, align 8
  br label %15, !llvm.loop !33

90:                                               ; preds = %15
  %91 = load ptr, ptr %6, align 8
  store ptr %91, ptr %3, align 8
  store i32 1, ptr %8, align 4
  br label %92

92:                                               ; preds = %90, %11
  call void @llvm.lifetime.end.p0(i64 8, ptr %7) #5
  call void @llvm.lifetime.end.p0(i64 8, ptr %6) #5
  %93 = load ptr, ptr %3, align 8
  ret ptr %93
}