; Function Attrs: nounwind uwtable
define dso_local ptr @part_data_dup_res(ptr noundef captures(address_is_null) %0, ptr noundef %1) local_unnamed_addr #0 {
  %3 = icmp eq ptr %0, null
  br i1 %3, label %.loopexit, label %4

4:                                                ; preds = %2
  %5 = tail call ptr @slurm_xcalloc(i64 noundef 1, i64 noundef 40, i1 noundef zeroext true, i1 noundef zeroext false, ptr noundef nonnull @.str, i32 noundef 450, ptr noundef nonnull @__func__.part_data_dup_res) #8
  %.not30 = icmp eq ptr %1, null
  br i1 %.not30, label %.split.us, label %.split

.split.us:                                        ; preds = %4, %11
  %.036.us = phi ptr [ %12, %11 ], [ %5, %4 ]
  %.02634.us = phi ptr [ %.pre38, %11 ], [ %0, %4 ]
  %6 = getelementptr inbounds nuw i8, ptr %.02634.us, i64 16
  %7 = load ptr, ptr %6, align 8
  %8 = getelementptr inbounds nuw i8, ptr %.036.us, i64 16
  store ptr %7, ptr %8, align 8
  %9 = getelementptr inbounds nuw i8, ptr %.036.us, i64 24
  store i8 1, ptr %9, align 8
  %10 = load ptr, ptr %.02634.us, align 8
  %.not33.us = icmp eq ptr %10, null
  br i1 %.not33.us, label %.loopexit, label %11

11:                                               ; preds = %.split.us
  %12 = tail call ptr @slurm_xcalloc(i64 noundef 1, i64 noundef 40, i1 noundef zeroext true, i1 noundef zeroext false, ptr noundef nonnull @.str, i32 noundef 469, ptr noundef nonnull @__func__.part_data_dup_res) #8
  store ptr %12, ptr %.036.us, align 8
  %.pre38 = load ptr, ptr %.02634.us, align 8
  %.not.us = icmp eq ptr %.pre38, null
  br i1 %.not.us, label %.loopexit, label %.split.us, !llvm.loop !33

.split:                                           ; preds = %4, %41
  %.036 = phi ptr [ %42, %41 ], [ %5, %4 ]
  %.02634 = phi ptr [ %.pre, %41 ], [ %0, %4 ]
  %13 = getelementptr inbounds nuw i8, ptr %.02634, i64 16
  %14 = load ptr, ptr %13, align 8
  %15 = getelementptr inbounds nuw i8, ptr %.036, i64 16
  store ptr %14, ptr %15, align 8
  %16 = getelementptr inbounds nuw i8, ptr %14, i64 240
  %17 = load ptr, ptr %16, align 8
  %.not31 = icmp eq ptr %17, null
  br i1 %.not31, label %38, label %18

18:                                               ; preds = %.split
  %19 = tail call i32 @bit_overlap_any(ptr noundef nonnull %1, ptr noundef nonnull %17) #8
  %.not32 = icmp eq i32 %19, 0
  br i1 %.not32, label %38, label %20

20:                                               ; preds = %18
  %21 = getelementptr inbounds nuw i8, ptr %.02634, i64 24
  %22 = load i8, ptr %21, align 8, !range !29, !noundef !30
  %23 = trunc nuw i8 %22 to i1
  br i1 %23, label %.lr.ph.i, label %part_data_rebuild_rows.exit

.lr.ph.i:                                         ; preds = %20, %28
  %.05.i = phi ptr [ %29, %28 ], [ %.02634, %20 ]
  %24 = getelementptr inbounds nuw i8, ptr %.05.i, i64 24
  %25 = load i8, ptr %24, align 8, !range !29, !noundef !30
  %26 = trunc nuw i8 %25 to i1
  br i1 %26, label %27, label %28

27:                                               ; preds = %.lr.ph.i
  tail call void @part_data_build_row_bitmaps(ptr noundef nonnull %.05.i, ptr noundef null)
  br label %28

28:                                               ; preds = %27, %.lr.ph.i
  %29 = load ptr, ptr %.05.i, align 8
  %.not.i = icmp eq ptr %29, null
  br i1 %.not.i, label %part_data_rebuild_rows.exit, label %.lr.ph.i, !llvm.loop !34

part_data_rebuild_rows.exit:                      ; preds = %28, %20
  %30 = getelementptr inbounds nuw i8, ptr %.02634, i64 8
  %31 = load i16, ptr %30, align 8
  %32 = getelementptr inbounds nuw i8, ptr %.036, i64 8
  store i16 %31, ptr %32, align 8
  %33 = getelementptr inbounds nuw i8, ptr %.02634, i64 32
  %34 = load ptr, ptr %33, align 8
  %35 = tail call ptr @part_data_dup_row(ptr noundef %34, i16 noundef zeroext %31)
  %36 = getelementptr inbounds nuw i8, ptr %.036, i64 32
  store ptr %35, ptr %36, align 8
  %37 = load i8, ptr %21, align 8, !range !29, !noundef !30
  br label %38

38:                                               ; preds = %.split, %18, %part_data_rebuild_rows.exit
  %.sink = phi i8 [ %37, %part_data_rebuild_rows.exit ], [ 1, %18 ], [ 1, %.split ]
  %39 = getelementptr inbounds nuw i8, ptr %.036, i64 24
  store i8 %.sink, ptr %39, align 8
  %40 = load ptr, ptr %.02634, align 8
  %.not33 = icmp eq ptr %40, null
  br i1 %.not33, label %.loopexit, label %41

41:                                               ; preds = %38
  %42 = tail call ptr @slurm_xcalloc(i64 noundef 1, i64 noundef 40, i1 noundef zeroext true, i1 noundef zeroext false, ptr noundef nonnull @.str, i32 noundef 469, ptr noundef nonnull @__func__.part_data_dup_res) #8
  store ptr %42, ptr %.036, align 8
  %.pre = load ptr, ptr %.02634, align 8
  %.not = icmp eq ptr %.pre, null
  br i1 %.not, label %.loopexit, label %.split, !llvm.loop !33

.loopexit:                                        ; preds = %38, %41, %.split.us, %11, %2
  %.025 = phi ptr [ null, %2 ], [ %5, %11 ], [ %5, %.split.us ], [ %5, %41 ], [ %5, %38 ]
  ret ptr %.025
}